target datalayout = "e-m:e-p270:32:32-p271:32:32-p272:64:64-i64:64-i128:128-f80:128-n8:16:32:64-S128"
target triple = "x86_64-pc-linux-gnu"

; Function Attrs: inlinehint mustprogress nounwind uwtable
define internal noundef signext i8 @_ZL9U_FAILURE10UErrorCode(i32 noundef %0) #2 {
  %2 = alloca i32, align 4
  store i32 %0, ptr %2, align 4, !tbaa !15
  %3 = load i32, ptr %2, align 4, !tbaa !15
  %4 = icmp sgt i32 %3, 0
  %5 = zext i1 %4 to i8
  ret i8 %5
}

; Function Attrs: mustprogress uwtable
define ptr @udata_open_77(ptr noundef %0, ptr noundef %1, ptr noundef %2, ptr noundef %3) #1 {
  %5 = alloca ptr, align 8
  %6 = alloca ptr, align 8
  %7 = alloca ptr, align 8
  %8 = alloca ptr, align 8
  %9 = alloca ptr, align 8
  store ptr %0, ptr %6, align 8, !tbaa !17
  store ptr %1, ptr %7, align 8, !tbaa !17
  store ptr %2, ptr %8, align 8, !tbaa !17
  store ptr %3, ptr %9, align 8, !tbaa !22
  %10 = load ptr, ptr %9, align 8, !tbaa !22
  %11 = icmp eq ptr %10, null
  br i1 %11, label %17, label %12

12:                                               ; preds = %4
  %13 = load ptr, ptr %9, align 8, !tbaa !22
  %14 = load i32, ptr %13, align 4, !tbaa !15
  %15 = call noundef signext i8 @_ZL9U_FAILURE10UErrorCode(i32 noundef %14)
  %16 = icmp ne i8 %15, 0
  br i1 %16, label %17, label %18

17:                                               ; preds = %12, %4
  store ptr null, ptr %5, align 8
  br label %34

18:                                               ; preds = %12
  %19 = load ptr, ptr %8, align 8, !tbaa !17
  %20 = icmp eq ptr %19, null
  br i1 %20, label %26, label %21

21:                                               ; preds = %18
  %22 = load ptr, ptr %8, align 8, !tbaa !17
  %23 = load i8, ptr %22, align 1, !tbaa !25
  %24 = sext i8 %23 to i32
  %25 = icmp eq i32 %24, 0
  br i1 %25, label %26, label %28

26:                                               ; preds = %21, %18
  %27 = load ptr, ptr %9, align 8, !tbaa !22
  store i32 1, ptr %27, align 4, !tbaa !15
  store ptr null, ptr %5, align 8
  br label %34

28:                                               ; preds = %21
  %29 = load ptr, ptr %6, align 8, !tbaa !17
  %30 = load ptr, ptr %7, align 8, !tbaa !17
  %31 = load ptr, ptr %8, align 8, !tbaa !17
  %32 = load ptr, ptr %9, align 8, !tbaa !22
  %33 = call noundef ptr @_ZL12doOpenChoicePKcS0_S0_PFaPvS0_S0_PK9UDataInfoES1_P10UErrorCode(ptr noundef %29, ptr noundef %30, ptr noundef %31, ptr noundef null, ptr noundef null, ptr noundef %32)
  store ptr %33, ptr %5, align 8
  br label %34

34:                                               ; preds = %28, %26, %17
  %35 = load ptr, ptr %5, align 8
  ret ptr %35
}