; Function Attrs: mustprogress uwtable
define noundef ptr @udata_open_77(ptr noundef %0, ptr noundef %1, ptr noundef %2, ptr noundef %3) local_unnamed_addr #1 {
  %5 = icmp eq ptr %3, null
  br i1 %5, label %17, label %6

6:                                                ; preds = %4
  %7 = load i32, ptr %3, align 4, !tbaa !13
  %8 = icmp slt i32 %7, 1
  br i1 %8, label %9, label %17

9:                                                ; preds = %6
  %10 = icmp eq ptr %2, null
  br i1 %10, label %14, label %11

11:                                               ; preds = %9
  %12 = load i8, ptr %2, align 1, !tbaa !20
  %13 = icmp eq i8 %12, 0
  br i1 %13, label %14, label %15

14:                                               ; preds = %11, %9
  store i32 1, ptr %3, align 4, !tbaa !13
  br label %17

15:                                               ; preds = %11
  %16 = tail call fastcc noundef ptr @_ZL12doOpenChoicePKcS0_S0_PFaPvS0_S0_PK9UDataInfoES1_P10UErrorCode(ptr noundef %0, ptr noundef %1, ptr noundef %2, ptr noundef null, ptr noundef null, ptr noundef %3)
  br label %17

17:                                               ; preds = %4, %6, %15, %14
  %.0 = phi ptr [ null, %14 ], [ %16, %15 ], [ null, %6 ], [ null, %4 ]
  ret ptr %.0
}